; ModuleID = 'bench/linux/original/ratelimit.ll'
source_filename = "bench/linux/original/ratelimit.ll"
target datalayout = "e-m:e-p270:32:32-p271:32:32-p272:64:64-i64:64-i128:128-f80:128-n8:16:32:64-S128"
target triple = "x86_64-unknown-linux-gnu"

module asm ".section \22.export_symbol\22,\22a\22 ; __export_symbol____ratelimit: ; .asciz \22\22 ; .asciz \22\22 ; .balign 8 ; .quad ___ratelimit ; .previous"

@jiffies = external dso_local global i64, section ".data..cacheline_aligned", align 64
@.str = private unnamed_addr constant [31 x i8] c"\014%s: %d callbacks suppressed\0A\00", align 1
@__UNIQUE_ID___addressable____ratelimit76 = internal global ptr @___ratelimit, section ".discard.addressable", align 8
@llvm.compiler.used = appending global [1 x ptr] [ptr @__UNIQUE_ID___addressable____ratelimit76], section "llvm.metadata"

; Function Attrs: fn_ret_thunk_extern nounwind null_pointer_is_valid
define dso_local noundef i32 @___ratelimit(ptr noundef %0, ptr noundef %1) #0 align 16 {
  %3 = alloca i64, align 8
  %4 = getelementptr inbounds i8, ptr %0, i64 4
  %5 = load volatile i32, ptr %4, align 4
  %6 = getelementptr inbounds i8, ptr %0, i64 8
  %7 = load volatile i32, ptr %6, align 8
  %8 = icmp eq i32 %5, 0
  br i1 %8, label %58, label %9

9:                                                ; preds = %2
  call void @llvm.lifetime.start.p0(i64 8, ptr nonnull %3) #4
  store i64 0, ptr %3, align 8, !annotation !5
  call void asm sideeffect "# __raw_save_flags\0A\09pushf ; pop $0", "=*rm,~{memory},~{dirflag},~{fpsr},~{flags}"(ptr nonnull elementtype(i64) %3) #4, !srcloc !6
  %10 = load i64, ptr %3, align 8
  call void @llvm.lifetime.end.p0(i64 8, ptr nonnull %3) #4
  call void asm sideeffect "cli", "~{memory},~{dirflag},~{fpsr},~{flags}"() #4, !srcloc !7
  %11 = call i32 @_raw_spin_trylock(ptr noundef %0) #4
  %12 = icmp eq i32 %11, 0
  br i1 %12, label %13, label %17

13:                                               ; preds = %9
  %14 = and i64 %10, 512
  %15 = icmp eq i64 %14, 0
  br i1 %15, label %58, label %16

16:                                               ; preds = %13
  call void asm sideeffect "sti", "~{memory},~{dirflag},~{fpsr},~{flags}"() #4, !srcloc !8
  br label %58

17:                                               ; preds = %9
  %18 = getelementptr inbounds i8, ptr %0, i64 24
  %19 = load i64, ptr %18, align 8
  %20 = icmp eq i64 %19, 0
  br i1 %20, label %21, label %23

21:                                               ; preds = %17
  %22 = load volatile i64, ptr @jiffies, align 64
  store i64 %22, ptr %18, align 8
  br label %23

23:                                               ; preds = %21, %17
  %24 = phi i64 [ %22, %21 ], [ %19, %17 ]
  %25 = sext i32 %5 to i64
  %26 = add i64 %24, %25
  %27 = load volatile i64, ptr @jiffies, align 64
  %28 = sub i64 %26, %27
  %29 = icmp slt i64 %28, 0
  br i1 %29, label %30, label %44

30:                                               ; preds = %23
  %31 = getelementptr inbounds i8, ptr %0, i64 16
  %32 = load i32, ptr %31, align 8
  %33 = icmp eq i32 %32, 0
  br i1 %33, label %41, label %34

34:                                               ; preds = %30
  %35 = getelementptr inbounds i8, ptr %0, i64 32
  %36 = load i64, ptr %35, align 8
  %37 = and i64 %36, 1
  %38 = icmp eq i64 %37, 0
  br i1 %38, label %39, label %41

39:                                               ; preds = %34
  %40 = call i32 (ptr, ...) @_printk_deferred(ptr noundef nonnull @.str, ptr noundef %1, i32 noundef %32) #5
  store i32 0, ptr %31, align 8
  br label %41

41:                                               ; preds = %39, %34, %30
  %42 = load volatile i64, ptr @jiffies, align 64
  store i64 %42, ptr %18, align 8
  %43 = getelementptr inbounds i8, ptr %0, i64 12
  store i32 0, ptr %43, align 4
  br label %44

44:                                               ; preds = %41, %23
  %45 = icmp eq i32 %7, 0
  br i1 %45, label %52, label %46

46:                                               ; preds = %44
  %47 = getelementptr inbounds i8, ptr %0, i64 12
  %48 = load i32, ptr %47, align 4
  %49 = icmp sgt i32 %7, %48
  br i1 %49, label %50, label %52

50:                                               ; preds = %46
  %51 = add nsw i32 %48, 1
  store i32 %51, ptr %47, align 4
  br label %56

52:                                               ; preds = %46, %44
  %53 = getelementptr inbounds i8, ptr %0, i64 16
  %54 = load i32, ptr %53, align 8
  %55 = add i32 %54, 1
  store i32 %55, ptr %53, align 8
  br label %56

56:                                               ; preds = %52, %50
  %57 = phi i32 [ 1, %50 ], [ 0, %52 ]
  call void @_raw_spin_unlock_irqrestore(ptr noundef %0, i64 noundef %10) #4
  br label %58

58:                                               ; preds = %56, %16, %13, %2
  %59 = phi i32 [ %57, %56 ], [ 1, %2 ], [ 0, %13 ], [ 0, %16 ]
  ret i32 %59
}

; Function Attrs: mustprogress nocallback nofree nosync nounwind willreturn memory(argmem: readwrite)
declare void @llvm.lifetime.start.p0(i64 immarg, ptr nocapture) #1

; Function Attrs: mustprogress nocallback nofree nosync nounwind willreturn memory(argmem: readwrite)
declare void @llvm.lifetime.end.p0(i64 immarg, ptr nocapture) #1

; Function Attrs: null_pointer_is_valid
declare dso_local i32 @_raw_spin_trylock(ptr noundef) local_unnamed_addr #2 section ".spinlock.text"

; Function Attrs: cold null_pointer_is_valid
declare dso_local i32 @_printk_deferred(ptr noundef, ...) local_unnamed_addr #3

; Function Attrs: null_pointer_is_valid
declare dso_local void @_raw_spin_unlock_irqrestore(ptr noundef, i64 noundef) local_unnamed_addr #2 section ".spinlock.text"


!llvm.module.flags = !{!0, !1, !2, !3, !4}

!0 = !{i32 1, !"wchar_size", i32 2}
!1 = !{i32 8, !"cf-protection-branch", i32 1}
!2 = !{i32 4, !"function_return_thunk_extern", i32 1}
!3 = !{i32 4, !"indirect_branch_cs_prefix", i32 1}
!4 = !{i32 4, !"SkipRaxSetup", i32 1}
!5 = !{!"auto-init"}
!6 = !{i64 1778456, i64 1778477}
!7 = !{i64 1778660}
!8 = !{i64 1778752}
